target datalayout = "e-m:e-p270:32:32-p271:32:32-p272:64:64-i64:64-i128:128-f80:128-n8:16:32:64-S128"
target triple = "x86_64-pc-linux-gnu"

%struct.VP8LBitReader = type { i64, ptr, i64, i64, i32, i32 }
%struct.HuffmanTables = type { %struct.HuffmanTablesSegment, ptr }
%struct.HuffmanTablesSegment = type { ptr, ptr, ptr, i32 }
%struct.VP8LDecoder = type { i32, i32, ptr, ptr, ptr, ptr, %struct.VP8LBitReader, i32, %struct.VP8LBitReader, i32, i32, i32, i32, i32, i32, %struct.VP8LMetadata, i32, [4 x %struct.VP8LTransform], i32, ptr, ptr }
%struct.VP8LMetadata = type { i32, %struct.VP8LColorCache, %struct.VP8LColorCache, i32, i32, i32, ptr, i32, ptr, %struct.HuffmanTables }
%struct.VP8LColorCache = type { ptr, i32, i32 }
%struct.VP8LTransform = type { i32, i32, i32, i32, ptr }

; Function Attrs: nounwind uwtable
define internal void @InitMetadata(ptr noundef %0) #0 {
  %2 = alloca ptr, align 8
  store ptr %0, ptr %2, align 8, !tbaa !15
  %3 = load ptr, ptr %2, align 8, !tbaa !15
  call void @llvm.memset.p0.i64(ptr align 8 %3, i8 0, i64 120, i1 false)
  ret void
}

; Function Attrs: nounwind uwtable
define internal void @ClearTransform(ptr noundef %0) #0 {
  %2 = alloca ptr, align 8
  store ptr %0, ptr %2, align 8, !tbaa !138
  %3 = load ptr, ptr %2, align 8, !tbaa !138
  %4 = getelementptr inbounds nuw %struct.VP8LTransform, ptr %3, i32 0, i32 4
  %5 = load ptr, ptr %4, align 8, !tbaa !140
  call void @WebPSafeFree(ptr noundef %5)
  %6 = load ptr, ptr %2, align 8, !tbaa !138
  %7 = getelementptr inbounds nuw %struct.VP8LTransform, ptr %6, i32 0, i32 4
  store ptr null, ptr %7, align 8, !tbaa !140
  ret void
}

; Function Attrs: nounwind uwtable
define internal void @ClearMetadata(ptr noundef %0) #0 {
  %2 = alloca ptr, align 8
  store ptr %0, ptr %2, align 8, !tbaa !15
  %3 = load ptr, ptr %2, align 8, !tbaa !15
  %4 = getelementptr inbounds nuw %struct.VP8LMetadata, ptr %3, i32 0, i32 6
  %5 = load ptr, ptr %4, align 8, !tbaa !137
  call void @WebPSafeFree(ptr noundef %5)
  %6 = load ptr, ptr %2, align 8, !tbaa !15
  %7 = getelementptr inbounds nuw %struct.VP8LMetadata, ptr %6, i32 0, i32 9
  call void @VP8LHuffmanTablesDeallocate(ptr noundef %7)
  %8 = load ptr, ptr %2, align 8, !tbaa !15
  %9 = getelementptr inbounds nuw %struct.VP8LMetadata, ptr %8, i32 0, i32 8
  %10 = load ptr, ptr %9, align 8, !tbaa !88
  call void @VP8LHtreeGroupsFree(ptr noundef %10)
  %11 = load ptr, ptr %2, align 8, !tbaa !15
  %12 = getelementptr inbounds nuw %struct.VP8LMetadata, ptr %11, i32 0, i32 1
  call void @VP8LColorCacheClear(ptr noundef %12)
  %13 = load ptr, ptr %2, align 8, !tbaa !15
  %14 = getelementptr inbounds nuw %struct.VP8LMetadata, ptr %13, i32 0, i32 2
  call void @VP8LColorCacheClear(ptr noundef %14)
  %15 = load ptr, ptr %2, align 8, !tbaa !15
  call void @InitMetadata(ptr noundef %15)
  ret void
}

; Function Attrs: nounwind uwtable
define internal void @VP8LClear(ptr noundef %0) #0 {
  %2 = alloca ptr, align 8
  %3 = alloca i32, align 4
  %4 = alloca i32, align 4
  store ptr %0, ptr %2, align 8, !tbaa !18
  call void @llvm.lifetime.start.p0(i64 4, ptr %3) #6
  %5 = load ptr, ptr %2, align 8, !tbaa !18
  %6 = icmp eq ptr %5, null
  br i1 %6, label %7, label %8

7:                                                ; preds = %1
  store i32 1, ptr %4, align 4
  br label %43

8:                                                ; preds = %1
  %9 = load ptr, ptr %2, align 8, !tbaa !18
  %10 = getelementptr inbounds nuw %struct.VP8LDecoder, ptr %9, i32 0, i32 15
  call void @ClearMetadata(ptr noundef %10)
  %11 = load ptr, ptr %2, align 8, !tbaa !18
  %12 = getelementptr inbounds nuw %struct.VP8LDecoder, ptr %11, i32 0, i32 4
  %13 = load ptr, ptr %12, align 8, !tbaa !60
  call void @WebPSafeFree(ptr noundef %13)
  %14 = load ptr, ptr %2, align 8, !tbaa !18
  %15 = getelementptr inbounds nuw %struct.VP8LDecoder, ptr %14, i32 0, i32 4
  store ptr null, ptr %15, align 8, !tbaa !60
  store i32 0, ptr %3, align 4, !tbaa !13
  br label %16

16:                                               ; preds = %28, %8
  %17 = load i32, ptr %3, align 4, !tbaa !13
  %18 = load ptr, ptr %2, align 8, !tbaa !18
  %19 = getelementptr inbounds nuw %struct.VP8LDecoder, ptr %18, i32 0, i32 16
  %20 = load i32, ptr %19, align 8, !tbaa !61
  %21 = icmp slt i32 %17, %20
  br i1 %21, label %22, label %31

22:                                               ; preds = %16
  %23 = load ptr, ptr %2, align 8, !tbaa !18
  %24 = getelementptr inbounds nuw %struct.VP8LDecoder, ptr %23, i32 0, i32 17
  %25 = load i32, ptr %3, align 4, !tbaa !13
  %26 = sext i32 %25 to i64
  %27 = getelementptr inbounds [4 x %struct.VP8LTransform], ptr %24, i64 0, i64 %26
  call void @ClearTransform(ptr noundef %27)
  br label %28

28:                                               ; preds = %22
  %29 = load i32, ptr %3, align 4, !tbaa !13
  %30 = add nsw i32 %29, 1
  store i32 %30, ptr %3, align 4, !tbaa !13
  br label %16, !llvm.loop !62

31:                                               ; preds = %16
  %32 = load ptr, ptr %2, align 8, !tbaa !18
  %33 = getelementptr inbounds nuw %struct.VP8LDecoder, ptr %32, i32 0, i32 16
  store i32 0, ptr %33, align 8, !tbaa !61
  %34 = load ptr, ptr %2, align 8, !tbaa !18
  %35 = getelementptr inbounds nuw %struct.VP8LDecoder, ptr %34, i32 0, i32 18
  store i32 0, ptr %35, align 8, !tbaa !63
  %36 = load ptr, ptr %2, align 8, !tbaa !18
  %37 = getelementptr inbounds nuw %struct.VP8LDecoder, ptr %36, i32 0, i32 19
  %38 = load ptr, ptr %37, align 8, !tbaa !64
  call void @WebPSafeFree(ptr noundef %38)
  %39 = load ptr, ptr %2, align 8, !tbaa !18
  %40 = getelementptr inbounds nuw %struct.VP8LDecoder, ptr %39, i32 0, i32 19
  store ptr null, ptr %40, align 8, !tbaa !64
  %41 = load ptr, ptr %2, align 8, !tbaa !18
  %42 = getelementptr inbounds nuw %struct.VP8LDecoder, ptr %41, i32 0, i32 3
  store ptr null, ptr %42, align 8, !tbaa !65
  store i32 0, ptr %4, align 4
  br label %43

43:                                               ; preds = %31, %7
  call void @llvm.lifetime.end.p0(i64 4, ptr %3) #6
  %44 = load i32, ptr %4, align 4
  switch i32 %44, label %46 [
    i32 0, label %45
    i32 1, label %45
  ]

45:                                               ; preds = %43, %43
  ret void

46:                                               ; preds = %43
  unreachable
}