; Function Attrs: nounwind uwtable
define internal fastcc void @VP8LClear(ptr noundef nonnull %0) unnamed_addr #1 {
  %2 = getelementptr inbounds nuw i8, ptr %0, i64 152
  %3 = getelementptr inbounds nuw i8, ptr %0, i64 208
  %4 = load ptr, ptr %3, align 8, !tbaa !54
  tail call void @WebPSafeFree(ptr noundef %4) #8
  %5 = getelementptr inbounds nuw i8, ptr %0, i64 232
  tail call void @VP8LHuffmanTablesDeallocate(ptr noundef nonnull %5) #8
  %6 = getelementptr inbounds nuw i8, ptr %0, i64 224
  %7 = load ptr, ptr %6, align 8, !tbaa !55
  tail call void @VP8LHtreeGroupsFree(ptr noundef %7) #8
  %8 = getelementptr inbounds nuw i8, ptr %0, i64 160
  tail call void @VP8LColorCacheClear(ptr noundef nonnull %8) #8
  %9 = getelementptr inbounds nuw i8, ptr %0, i64 176
  tail call void @VP8LColorCacheClear(ptr noundef nonnull %9) #8
  tail call void @llvm.memset.p0.i64(ptr noundef nonnull align 8 dereferenceable(120) %2, i8 0, i64 120, i1 false)
  %10 = getelementptr inbounds nuw i8, ptr %0, i64 24
  %11 = load ptr, ptr %10, align 8, !tbaa !56
  tail call void @WebPSafeFree(ptr noundef %11) #8
  store ptr null, ptr %10, align 8, !tbaa !56
  %12 = getelementptr inbounds nuw i8, ptr %0, i64 272
  %13 = load i32, ptr %12, align 8, !tbaa !57
  %14 = icmp sgt i32 %13, 0
  br i1 %14, label %.lr.ph, label %._crit_edge

.lr.ph:                                           ; preds = %1
  %15 = getelementptr i8, ptr %0, i64 296
  br label %16

16:                                               ; preds = %.lr.ph, %16
  %indvars.iv = phi i64 [ 0, %.lr.ph ], [ %indvars.iv.next, %16 ]
  %.idx = mul nuw nsw i64 %indvars.iv, 24
  %17 = getelementptr i8, ptr %15, i64 %.idx
  %18 = load ptr, ptr %17, align 8, !tbaa !58
  tail call void @WebPSafeFree(ptr noundef %18) #8
  store ptr null, ptr %17, align 8, !tbaa !58
  %indvars.iv.next = add nuw nsw i64 %indvars.iv, 1
  %19 = load i32, ptr %12, align 8, !tbaa !57
  %20 = sext i32 %19 to i64
  %21 = icmp slt i64 %indvars.iv.next, %20
  br i1 %21, label %16, label %._crit_edge, !llvm.loop !60

._crit_edge:                                      ; preds = %16, %1
  store i32 0, ptr %12, align 8, !tbaa !57
  %22 = getelementptr inbounds nuw i8, ptr %0, i64 376
  store i32 0, ptr %22, align 8, !tbaa !61
  %23 = getelementptr inbounds nuw i8, ptr %0, i64 384
  %24 = load ptr, ptr %23, align 8, !tbaa !62
  tail call void @WebPSafeFree(ptr noundef %24) #8
  store ptr null, ptr %23, align 8, !tbaa !62
  %25 = getelementptr inbounds nuw i8, ptr %0, i64 16
  store ptr null, ptr %25, align 8, !tbaa !63
  ret void
}